; Function Attrs: nounwind sspstrong uwtable
define dso_local i64 @rb_struct_getmember(i64 noundef %0, i64 noundef %1) local_unnamed_addr #0 {
  %3 = tail call i64 @rb_id2sym(i64 noundef %1) #19
  %4 = tail call fastcc i32 @struct_member_pos(i64 noundef %0, i64 noundef %3)
  %.not = icmp eq i32 %4, -1
  br i1 %.not, label %17, label %5

5:                                                ; preds = %2
  %6 = inttoptr i64 %0 to ptr
  %7 = load i64, ptr %6, align 8, !tbaa !11
  %8 = and i64 %7, 1040384
  %.not.i.i = icmp eq i64 %8, 0
  br i1 %.not.i.i, label %11, label %9

9:                                                ; preds = %5
  %10 = getelementptr inbounds nuw i8, ptr %6, i64 16
  br label %internal_RSTRUCT_GET.exit

11:                                               ; preds = %5
  %12 = getelementptr inbounds nuw i8, ptr %6, i64 24
  %13 = load ptr, ptr %12, align 8, !tbaa !13
  br label %internal_RSTRUCT_GET.exit

internal_RSTRUCT_GET.exit:                        ; preds = %9, %11
  %.0.i.i = phi ptr [ %10, %9 ], [ %13, %11 ]
  %14 = sext i32 %4 to i64
  %15 = getelementptr i64, ptr %.0.i.i, i64 %14
  %16 = load i64, ptr %15, align 8, !tbaa !7
  ret i64 %16

17:                                               ; preds = %2
  %18 = tail call i64 @rb_id2sym(i64 noundef %1) #19
  tail call fastcc void @rb_name_err_raise(ptr noundef nonnull @.str.3, i64 noundef %0, i64 noundef %18) #22
  unreachable
}